; Function Attrs: mustprogress uwtable
define noundef nonnull align 8 dereferenceable(8) ptr @_ZN8QuantLiblsERSoRKNS_17CommodityUnitCostE(ptr noundef nonnull returned align 8 dereferenceable(8) %out, ptr noundef nonnull align 8 dereferenceable(40) %unitCost) local_unnamed_addr #0 {
entry:
  %0 = load double, ptr %unitCost, align 8, !tbaa !3
  %call.i = tail call noundef nonnull align 8 dereferenceable(8) ptr @_ZNSo9_M_insertIdEERSoT_(ptr noundef nonnull align 8 dereferenceable(8) %out, double noundef %0)
  %call1.i = tail call noundef nonnull align 8 dereferenceable(8) ptr @_ZSt16__ostream_insertIcSt11char_traitsIcEERSt13basic_ostreamIT_T0_ES6_PKS3_l(ptr noundef nonnull align 8 dereferenceable(8) %call.i, ptr noundef nonnull @.str, i64 noundef 1)
  %currency_.i = getelementptr inbounds nuw i8, ptr %unitCost, i64 8
  tail call void @_ZNK8QuantLib8Currency13checkNonEmptyEv(ptr noundef nonnull align 8 dereferenceable(16) %currency_.i)
  %1 = load ptr, ptr %currency_.i, align 8, !tbaa !12
  %cmp.not.i.i = icmp eq ptr %1, null
  br i1 %cmp.not.i.i, label %cond.false.i.i, label %_ZNK8QuantLib8Currency4codeB5cxx11Ev.exit, !prof !13

cond.false.i.i:                                   ; preds = %entry
  tail call void @_ZN5boost16assertion_failedEPKcS1_S1_l(ptr noundef nonnull @.str.7, ptr noundef nonnull @__PRETTY_FUNCTION__._ZNK5boost10shared_ptrIN8QuantLib8Currency4DataEEptEv, ptr noundef nonnull @.str.8, i64 noundef 784)
  %.pre.i.i = load ptr, ptr %currency_.i, align 8, !tbaa !12
  br label %_ZNK8QuantLib8Currency4codeB5cxx11Ev.exit

_ZNK8QuantLib8Currency4codeB5cxx11Ev.exit:        ; preds = %entry, %cond.false.i.i
  %2 = phi ptr [ %1, %entry ], [ %.pre.i.i, %cond.false.i.i ]
  %code.i = getelementptr inbounds nuw i8, ptr %2, i64 32
  %3 = load ptr, ptr %code.i, align 8, !tbaa !14
  %_M_string_length.i.i = getelementptr inbounds nuw i8, ptr %2, i64 40
  %4 = load i64, ptr %_M_string_length.i.i, align 8, !tbaa !18
  %call2.i = tail call noundef nonnull align 8 dereferenceable(8) ptr @_ZSt16__ostream_insertIcSt11char_traitsIcEERSt13basic_ostreamIT_T0_ES6_PKS3_l(ptr noundef nonnull align 8 dereferenceable(8) %call.i, ptr noundef %3, i64 noundef %4)
  %call1.i5 = tail call noundef nonnull align 8 dereferenceable(8) ptr @_ZSt16__ostream_insertIcSt11char_traitsIcEERSt13basic_ostreamIT_T0_ES6_PKS3_l(ptr noundef nonnull align 8 dereferenceable(8) %call2.i, ptr noundef nonnull @.str.1, i64 noundef 1)
  %unitOfMeasure_.i = getelementptr inbounds nuw i8, ptr %unitCost, i64 24
  %5 = load ptr, ptr %unitOfMeasure_.i, align 8, !tbaa !19
  %cmp.not.i.i6 = icmp eq ptr %5, null
  br i1 %cmp.not.i.i6, label %cond.false.i.i8, label %_ZNK8QuantLib13UnitOfMeasure4codeB5cxx11Ev.exit, !prof !13

cond.false.i.i8:                                  ; preds = %_ZNK8QuantLib8Currency4codeB5cxx11Ev.exit
  tail call void @_ZN5boost16assertion_failedEPKcS1_S1_l(ptr noundef nonnull @.str.7, ptr noundef nonnull @__PRETTY_FUNCTION__._ZNK5boost10shared_ptrIN8QuantLib13UnitOfMeasure4DataEEptEv, ptr noundef nonnull @.str.8, i64 noundef 784)
  %.pre.i.i9 = load ptr, ptr %unitOfMeasure_.i, align 8, !tbaa !19
  br label %_ZNK8QuantLib13UnitOfMeasure4codeB5cxx11Ev.exit

_ZNK8QuantLib13UnitOfMeasure4codeB5cxx11Ev.exit:  ; preds = %_ZNK8QuantLib8Currency4codeB5cxx11Ev.exit, %cond.false.i.i8
  %6 = phi ptr [ %5, %_ZNK8QuantLib8Currency4codeB5cxx11Ev.exit ], [ %.pre.i.i9, %cond.false.i.i8 ]
  %code.i7 = getelementptr inbounds nuw i8, ptr %6, i64 32
  %7 = load ptr, ptr %code.i7, align 8, !tbaa !14
  %_M_string_length.i.i10 = getelementptr inbounds nuw i8, ptr %6, i64 40
  %8 = load i64, ptr %_M_string_length.i.i10, align 8, !tbaa !18
  %call2.i11 = tail call noundef nonnull align 8 dereferenceable(8) ptr @_ZSt16__ostream_insertIcSt11char_traitsIcEERSt13basic_ostreamIT_T0_ES6_PKS3_l(ptr noundef nonnull align 8 dereferenceable(8) %call2.i, ptr noundef %7, i64 noundef %8)
  ret ptr %out
}